(dp0
S'course_id'
p1
(dp2
S'length'
p3
I512
sS'unique'
p4
I00
sS'sortable'
p5
I3
sS'sql'
p6
S'INTEGER'
p7
sS'notnull'
p8
I00
sS'type'
p9
S'integer'
p10
ssS'status'
p11
(dp12
g3
I512
sg4
I00
sg5
I4
sg6
S'CHAR(512)'
p13
sg8
I00
sg9
S'string'
p14
ssS'user_id'
p15
(dp16
g3
I512
sg4
I00
sg5
I2
sg6
S'INTEGER'
p17
sg8
I00
sg9
g10
ssS'id'
p18
(dp19
g3
I512
sg4
I00
sg5
I1
sg6
S'INTEGER PRIMARY KEY AUTOINCREMENT'
p20
sg8
I00
sg9
g18
ss.