(dp0
S'student_user_id'
p1
(dp2
S'length'
p3
I512
sS'unique'
p4
I00
sS'sortable'
p5
I3
sS'sql'
p6
S'INTEGER'
p7
sS'notnull'
p8
I00
sS'type'
p9
S'integer'
p10
ssS'faculty_user_id'
p11
(dp12
g3
I512
sg4
I00
sg5
I2
sg6
S'INTEGER'
p13
sg8
I00
sg9
g10
ssS'id'
p14
(dp15
g3
I512
sg4
I00
sg5
I1
sg6
S'INTEGER PRIMARY KEY AUTOINCREMENT'
p16
sg8
I00
sg9
g14
ss.